; Function Attrs: mustprogress nounwind uwtable
define hidden void @_ZN6Assimp11LWOImporterC2Ev(ptr noundef nonnull align 8 dereferenceable(233) %0) unnamed_addr #0 align 2 personality ptr @__gxx_personality_v0 {
  tail call void @_ZN6Assimp12BaseImporterC2Ev(ptr noundef nonnull align 8 dereferenceable(72) %0) #27
  store ptr getelementptr inbounds nuw inrange(-16, 48) (i8, ptr @_ZTVN6Assimp11LWOImporterE, i64 16), ptr %0, align 8
  %2 = getelementptr inbounds nuw i8, ptr %0, i64 72
  store i8 0, ptr %2, align 8
  %3 = getelementptr inbounds nuw i8, ptr %0, i64 73
  store i8 0, ptr %3, align 1
  %4 = getelementptr inbounds nuw i8, ptr %0, i64 74
  store i8 0, ptr %4, align 2
  %5 = getelementptr inbounds nuw i8, ptr %0, i64 80
  %6 = getelementptr inbounds nuw i8, ptr %0, i64 184
  store ptr null, ptr %6, align 8
  %7 = getelementptr inbounds nuw i8, ptr %0, i64 192
  store i8 0, ptr %7, align 8
  %8 = getelementptr inbounds nuw i8, ptr %0, i64 196
  store i32 0, ptr %8, align 4
  %9 = getelementptr inbounds nuw i8, ptr %0, i64 200
  %10 = getelementptr inbounds nuw i8, ptr %0, i64 216
  tail call void @llvm.memset.p0.i64(ptr noundef nonnull align 8 dereferenceable(100) %5, i8 0, i64 100, i1 false)
  store ptr %10, ptr %9, align 8
  %11 = getelementptr inbounds nuw i8, ptr %0, i64 208
  store i64 0, ptr %11, align 8
  store i8 0, ptr %10, align 8
  %12 = getelementptr inbounds nuw i8, ptr %0, i64 232
  store i8 0, ptr %12, align 8
  ret void
}